
build/main.elf:     file format elf32-littleriscv


Disassembly of section .boot:

00000000 <_start>:
   0:	00000097          	auipc	ra,0x0
   4:	00008093          	mv	ra,ra
   8:	00002137          	lui	sp,0x2
   c:	00000297          	auipc	t0,0x0
  10:	01028293          	addi	t0,t0,16 # 1c <__rvsteel_irq_handler__>
  14:	30529073          	csrw	mtvec,t0
  18:	0e40006f          	j	fc <main>

0000001c <__rvsteel_irq_handler__>:
  1c:	1b800293          	li	t0,440
  20:	0002a303          	lw	t1,0(t0)
  24:	000300e7          	jalr	t1
  28:	30200073          	mret

0000002c <uart_send_char>:
  2c:	1b402703          	lw	a4,436(zero) # 1b4 <__RVSTEEL_UART_TX>
  30:	00100693          	li	a3,1
  34:	00074783          	lbu	a5,0(a4)
  38:	fed79ee3          	bne	a5,a3,34 <uart_send_char+0x8>
  3c:	00a70023          	sb	a0,0(a4)
  40:	00008067          	ret

00000044 <uart_send_string>:
  44:	00054603          	lbu	a2,0(a0)
  48:	02060263          	beqz	a2,6c <uart_send_string+0x28>
  4c:	00100693          	li	a3,1
  50:	1b402703          	lw	a4,436(zero) # 1b4 <__RVSTEEL_UART_TX>
  54:	00074783          	lbu	a5,0(a4)
  58:	fed79ee3          	bne	a5,a3,54 <uart_send_string+0x10>
  5c:	00c70023          	sb	a2,0(a4)
  60:	00154603          	lbu	a2,1(a0)
  64:	00150513          	addi	a0,a0,1
  68:	fe0614e3          	bnez	a2,50 <uart_send_string+0xc>
  6c:	00008067          	ret

00000070 <uart_read_last_char>:
  70:	1b002783          	lw	a5,432(zero) # 1b0 <__RVSTEEL_UART_RX>
  74:	0007c503          	lbu	a0,0(a5)
  78:	00008067          	ret

0000007c <irq_enable_all>:
  7c:	fe512e23          	sw	t0,-4(sp) # 1ffc <__RVSTEEL_IRQ_HANDLER+0x1e44>
  80:	fff00293          	li	t0,-1
  84:	30029073          	csrw	mstatus,t0
  88:	30429073          	csrw	mie,t0
  8c:	ffc12283          	lw	t0,-4(sp)
  90:	00008067          	ret

00000094 <irq_disable_all>:
  94:	fe512e23          	sw	t0,-4(sp)
  98:	00000293          	li	t0,0
  9c:	30029073          	csrw	mstatus,t0
  a0:	30429073          	csrw	mie,t0
  a4:	ffc12283          	lw	t0,-4(sp)
  a8:	00008067          	ret

000000ac <irq_set_interrupt_handler>:
  ac:	1aa02c23          	sw	a0,440(zero) # 1b8 <__RVSTEEL_IRQ_HANDLER>
  b0:	00008067          	ret

000000b4 <busy_wait>:
  b4:	0000006f          	j	b4 <busy_wait>

Disassembly of section .text:

000000b8 <process_received_character>:
  b8:	ff010113          	addi	sp,sp,-16
  bc:	00112623          	sw	ra,12(sp)
  c0:	fb1ff0ef          	jal	70 <uart_read_last_char>
  c4:	00d00713          	li	a4,13
  c8:	02e50263          	beq	a0,a4,ec <process_received_character+0x34>
  cc:	07e00713          	li	a4,126
  d0:	00a77863          	bgeu	a4,a0,e0 <process_received_character+0x28>
  d4:	00c12083          	lw	ra,12(sp)
  d8:	01010113          	addi	sp,sp,16
  dc:	00008067          	ret
  e0:	00c12083          	lw	ra,12(sp)
  e4:	01010113          	addi	sp,sp,16
  e8:	f45ff06f          	j	2c <uart_send_char>
  ec:	00c12083          	lw	ra,12(sp)
  f0:	12c00513          	li	a0,300
  f4:	01010113          	addi	sp,sp,16
  f8:	f4dff06f          	j	44 <uart_send_string>

Disassembly of section .text.startup:

000000fc <main>:
  fc:	ff010113          	addi	sp,sp,-16
 100:	15400513          	li	a0,340
 104:	00112623          	sw	ra,12(sp)
 108:	f3dff0ef          	jal	44 <uart_send_string>
 10c:	0b800513          	li	a0,184
 110:	f9dff0ef          	jal	ac <irq_set_interrupt_handler>
 114:	f69ff0ef          	jal	7c <irq_enable_all>
 118:	f9dff0ef          	jal	b4 <busy_wait>
 11c:	00c12083          	lw	ra,12(sp)
 120:	00000513          	li	a0,0
 124:	01010113          	addi	sp,sp,16
 128:	00008067          	ret
