
hello_world.elf:     file format elf32-littleriscv


Disassembly of section .text:

00000000 <rvsteel_boot>:
   0:	00001197          	auipc	gp,0x1
   4:	8f018193          	addi	gp,gp,-1808 # 8f0 <__global_pointer$>
   8:	00002117          	auipc	sp,0x2
   c:	ff810113          	addi	sp,sp,-8 # 2000 <__memory_size>
  10:	02000293          	li	t0,32
  14:	30529073          	csrw	mtvec,t0
  18:	08c000ef          	jal	a4 <main>
  1c:	0000006f          	j	1c <rvsteel_boot+0x1c>

00000020 <rvsteel_trap_vector>:
  20:	0800006f          	j	a0 <rvsteel_return_from_trap>
  24:	0000006f          	j	24 <rvsteel_trap_vector+0x4>
  28:	0000006f          	j	28 <rvsteel_trap_vector+0x8>
  2c:	0740006f          	j	a0 <rvsteel_return_from_trap>
  30:	0000006f          	j	30 <rvsteel_trap_vector+0x10>
  34:	0000006f          	j	34 <rvsteel_trap_vector+0x14>
  38:	0000006f          	j	38 <rvsteel_trap_vector+0x18>
  3c:	0640006f          	j	a0 <rvsteel_return_from_trap>
  40:	0000006f          	j	40 <rvsteel_trap_vector+0x20>
  44:	0000006f          	j	44 <rvsteel_trap_vector+0x24>
  48:	0000006f          	j	48 <rvsteel_trap_vector+0x28>
  4c:	0540006f          	j	a0 <rvsteel_return_from_trap>
  50:	0000006f          	j	50 <rvsteel_trap_vector+0x30>
  54:	0000006f          	j	54 <rvsteel_trap_vector+0x34>
  58:	0000006f          	j	58 <rvsteel_trap_vector+0x38>
  5c:	0000006f          	j	5c <rvsteel_trap_vector+0x3c>
  60:	0400006f          	j	a0 <rvsteel_return_from_trap>
  64:	03c0006f          	j	a0 <rvsteel_return_from_trap>
  68:	0380006f          	j	a0 <rvsteel_return_from_trap>
  6c:	0340006f          	j	a0 <rvsteel_return_from_trap>
  70:	0300006f          	j	a0 <rvsteel_return_from_trap>
  74:	02c0006f          	j	a0 <rvsteel_return_from_trap>
  78:	0280006f          	j	a0 <rvsteel_return_from_trap>
  7c:	0240006f          	j	a0 <rvsteel_return_from_trap>
  80:	0200006f          	j	a0 <rvsteel_return_from_trap>
  84:	01c0006f          	j	a0 <rvsteel_return_from_trap>
  88:	0180006f          	j	a0 <rvsteel_return_from_trap>
  8c:	0140006f          	j	a0 <rvsteel_return_from_trap>
  90:	0100006f          	j	a0 <rvsteel_return_from_trap>
  94:	00c0006f          	j	a0 <rvsteel_return_from_trap>
  98:	0080006f          	j	a0 <rvsteel_return_from_trap>
  9c:	0040006f          	j	a0 <rvsteel_return_from_trap>

000000a0 <rvsteel_return_from_trap>:
  a0:	30200073          	mret

000000a4 <main>:
  a4:	0d000613          	li	a2,208
  a8:	04800593          	li	a1,72
  ac:	80000737          	lui	a4,0x80000
  b0:	00100693          	li	a3,1
  b4:	00872783          	lw	a5,8(a4) # 80000008 <__memory_size+0x7fffe008>
  b8:	fed79ee3          	bne	a5,a3,b4 <main+0x10>
  bc:	00b72023          	sw	a1,0(a4)
  c0:	00164583          	lbu	a1,1(a2)
  c4:	00160613          	addi	a2,a2,1
  c8:	fe0596e3          	bnez	a1,b4 <main+0x10>
  cc:	00008067          	ret
  d0:	6548                	.insn	2, 0x6548
  d2:	6c6c                	.insn	2, 0x6c6c
  d4:	6f57206f          	j	72fc8 <__memory_size+0x70fc8>
  d8:	6c72                	.insn	2, 0x6c72
  da:	2064                	.insn	2, 0x2064
  dc:	7266                	.insn	2, 0x7266
  de:	52206d6f          	jal	s10,6600 <__memory_size+0x4600>
  e2:	5349                	.insn	2, 0x5349
  e4:	20562d43          	.insn	4, 0x20562d43
  e8:	65657453          	.insn	4, 0x65657453
  ec:	216c                	.insn	2, 0x216c
	...
